target datalayout = "e-m:e-p270:32:32-p271:32:32-p272:64:64-i64:64-i128:128-f80:128-n8:16:32:64-S128"
target triple = "x86_64-pc-linux-gnu"

%struct.option = type { i32, i32, ptr, ptr, ptr, ptr, i32, ptr, i64, ptr, i64, ptr }

@.str.113 = private unnamed_addr constant [16 x i8] c"builtin/fetch.c\00", align 1
@.str.131 = private unnamed_addr constant [41 x i8] c"option callback does not expect negation\00", align 1

; Function Attrs: nounwind uwtable
define internal i32 @parse_refmap_arg(ptr noundef %0, ptr noundef %1, i32 noundef %2) #0 {
  %4 = alloca ptr, align 8
  %5 = alloca ptr, align 8
  %6 = alloca i32, align 4
  store ptr %0, ptr %4, align 8, !tbaa !104
  store ptr %1, ptr %5, align 8, !tbaa !11
  store i32 %2, ptr %6, align 4, !tbaa !4
  br label %7

7:                                                ; preds = %3
  %8 = load i32, ptr %6, align 4, !tbaa !4
  %9 = icmp ne i32 %8, 0
  br i1 %9, label %10, label %11

10:                                               ; preds = %7
  call void (ptr, i32, ptr, ...) @BUG_fl(ptr noundef @.str.113, i32 noundef 181, ptr noundef @.str.131) #12
  unreachable

11:                                               ; preds = %7
  br label %12

12:                                               ; preds = %11
  %13 = load ptr, ptr %4, align 8, !tbaa !104
  %14 = getelementptr inbounds nuw %struct.option, ptr %13, i32 0, i32 3
  %15 = load ptr, ptr %14, align 8, !tbaa !22
  %16 = load ptr, ptr %5, align 8, !tbaa !11
  call void @refspec_append(ptr noundef %15, ptr noundef %16)
  ret i32 0
}